; Function Attrs: mustprogress uwtable
define internal fastcc void @_ZL19_GetRandomNameTokenv(ptr dead_on_unwind noalias nocapture writable writeonly align 8 %0) unnamed_addr #3 personality ptr @__gxx_personality_v0 {
  %2 = tail call fastcc noundef nonnull align 8 dereferenceable(24) ptr @_ZNK32pxrInternal_v0_24__pxrReserved__12TfStaticDataISt6vectorINS_7TfTokenESaIS2_EEN12_GLOBAL__N_131nameTokens_Tf_StaticDataFactoryEE3GetEv()
  %3 = tail call i32 @rand() #29
  %4 = sext i32 %3 to i64
  %5 = tail call fastcc noundef ptr @_ZNK32pxrInternal_v0_24__pxrReserved__12TfStaticDataISt6vectorINS_7TfTokenESaIS2_EEN12_GLOBAL__N_131nameTokens_Tf_StaticDataFactoryEE3GetEv()
  %6 = getelementptr inbounds nuw i8, ptr %5, i64 8
  %7 = load ptr, ptr %6, align 8
  %8 = load ptr, ptr %5, align 8
  %9 = ptrtoint ptr %7 to i64
  %10 = ptrtoint ptr %8 to i64
  %11 = sub i64 %9, %10
  %12 = ashr exact i64 %11, 3
  %13 = urem i64 %4, %12
  %14 = load ptr, ptr %2, align 8
  %15 = getelementptr inbounds %"class.pxrInternal_v0_24__pxrReserved__::TfToken", ptr %14, i64 %13
  %16 = load i64, ptr %15, align 8
  store i64 %16, ptr %0, align 8
  %17 = and i64 %16, 7
  %.not.i.i = icmp eq i64 %17, 0
  br i1 %.not.i.i, label %_ZN32pxrInternal_v0_24__pxrReserved__7TfTokenC2ERKS0_.exit, label %18

18:                                               ; preds = %1
  %19 = and i64 %16, -8
  %20 = inttoptr i64 %19 to ptr
  %21 = atomicrmw add ptr %20, i32 2 monotonic, align 4
  %22 = and i32 %21, 1
  %.not1.i.i = icmp eq i32 %22, 0
  br i1 %.not1.i.i, label %23, label %_ZN32pxrInternal_v0_24__pxrReserved__7TfTokenC2ERKS0_.exit

23:                                               ; preds = %18
  store ptr %20, ptr %0, align 8
  br label %_ZN32pxrInternal_v0_24__pxrReserved__7TfTokenC2ERKS0_.exit

_ZN32pxrInternal_v0_24__pxrReserved__7TfTokenC2ERKS0_.exit: ; preds = %1, %18, %23
  ret void
}